; Function Attrs: mustprogress uwtable
define dso_local void @_ZN27btSimulationIslandManagerMt20serialIslandDispatchEP20btAlignedObjectArrayIPNS_6IslandEERKNS_12SolverParamsE(ptr noundef readonly captures(none) %0, ptr noundef nonnull readonly align 8 captures(none) dereferenceable(40) %1) local_unnamed_addr #0 align 2 personality ptr @__gxx_personality_v0 {
  %3 = alloca %class.CProfileSample, align 1
  call void @llvm.lifetime.start.p0(i64 1, ptr nonnull %3) #14
  call void @_ZN14CProfileSampleC1EPKc(ptr noundef nonnull align 1 dereferenceable(1) %3, ptr noundef nonnull @.str.1)
  %4 = getelementptr inbounds nuw i8, ptr %1, i64 8
  %5 = load ptr, ptr %4, align 8, !tbaa !39
  %.not = icmp eq ptr %5, null
  %6 = load ptr, ptr %1, align 8
  %7 = select i1 %.not, ptr %6, ptr %5
  %8 = getelementptr inbounds nuw i8, ptr %0, i64 4
  %9 = load i32, ptr %8, align 4, !tbaa !16
  %10 = icmp sgt i32 %9, 0
  br i1 %10, label %.lr.ph, label %._crit_edge

.lr.ph:                                           ; preds = %2
  %11 = getelementptr inbounds nuw i8, ptr %0, i64 16
  %12 = getelementptr inbounds nuw i8, ptr %1, i64 16
  %13 = getelementptr inbounds nuw i8, ptr %1, i64 24
  %14 = getelementptr inbounds nuw i8, ptr %1, i64 32
  br label %17

._crit_edge:                                      ; preds = %_ZN27btSimulationIslandManagerMt11solveIslandEP18btConstraintSolverRNS_6IslandERKNS_12SolverParamsE.exit, %2
  call void @_ZN14CProfileSampleD1Ev(ptr noundef nonnull align 1 dereferenceable(1) %3) #14
  call void @llvm.lifetime.end.p0(i64 1, ptr nonnull %3) #14
  ret void

15:                                               ; preds = %17
  %16 = landingpad { ptr, i32 }
          cleanup
  call void @_ZN14CProfileSampleD1Ev(ptr noundef nonnull align 1 dereferenceable(1) %3) #14
  call void @llvm.lifetime.end.p0(i64 1, ptr nonnull %3) #14
  resume { ptr, i32 } %16

17:                                               ; preds = %.lr.ph, %_ZN27btSimulationIslandManagerMt11solveIslandEP18btConstraintSolverRNS_6IslandERKNS_12SolverParamsE.exit
  %indvars.iv = phi i64 [ 0, %.lr.ph ], [ %indvars.iv.next, %_ZN27btSimulationIslandManagerMt11solveIslandEP18btConstraintSolverRNS_6IslandERKNS_12SolverParamsE.exit ]
  %18 = load ptr, ptr %11, align 8, !tbaa !15
  %19 = getelementptr inbounds nuw ptr, ptr %18, i64 %indvars.iv
  %20 = load ptr, ptr %19, align 8, !tbaa !45
  %21 = getelementptr inbounds nuw i8, ptr %20, i64 36
  %22 = load i32, ptr %21, align 4, !tbaa !46
  %.not.i = icmp eq i32 %22, 0
  %23 = getelementptr inbounds nuw i8, ptr %20, i64 48
  %24 = load ptr, ptr %23, align 8
  %25 = select i1 %.not.i, ptr null, ptr %24
  %26 = getelementptr inbounds nuw i8, ptr %20, i64 68
  %27 = load i32, ptr %26, align 4, !tbaa !48
  %.not14.i = icmp eq i32 %27, 0
  %28 = getelementptr inbounds nuw i8, ptr %20, i64 80
  %29 = load ptr, ptr %28, align 8
  %30 = select i1 %.not14.i, ptr null, ptr %29
  %31 = getelementptr inbounds nuw i8, ptr %20, i64 16
  %32 = load ptr, ptr %31, align 8, !tbaa !52
  %33 = getelementptr inbounds nuw i8, ptr %20, i64 4
  %34 = load i32, ptr %33, align 4, !tbaa !53
  %35 = load ptr, ptr %12, align 8, !tbaa !54
  %36 = load ptr, ptr %13, align 8, !tbaa !55
  %37 = load ptr, ptr %14, align 8, !tbaa !56
  %38 = load ptr, ptr %7, align 8, !tbaa !4
  %39 = getelementptr inbounds nuw i8, ptr %38, i64 24
  %40 = load ptr, ptr %39, align 8
  %41 = invoke noundef float %40(ptr noundef nonnull align 8 dereferenceable(8) %7, ptr noundef nonnull %32, i32 noundef %34, ptr noundef %25, i32 noundef %22, ptr noundef %30, i32 noundef %27, ptr noundef nonnull align 4 dereferenceable(128) %35, ptr noundef %36, ptr noundef %37)
          to label %_ZN27btSimulationIslandManagerMt11solveIslandEP18btConstraintSolverRNS_6IslandERKNS_12SolverParamsE.exit unwind label %15

_ZN27btSimulationIslandManagerMt11solveIslandEP18btConstraintSolverRNS_6IslandERKNS_12SolverParamsE.exit: ; preds = %17
  %indvars.iv.next = add nuw nsw i64 %indvars.iv, 1
  %42 = load i32, ptr %8, align 4, !tbaa !16
  %43 = sext i32 %42 to i64
  %44 = icmp slt i64 %indvars.iv.next, %43
  br i1 %44, label %17, label %._crit_edge, !llvm.loop !133
}